(dp0
Vmanual
p1
(dp2
Vbusybox
p3
(dp4
S'bat'
p5
F273.8890571594238
ssVssldump
p6
(dp7
g5
F78.4396300315857
ssVopenssl
p8
(dp9
S'bat'
p10
F464.28136706352234
ssVvim
p11
(dp12
S'bat'
p13
F211.2953040599823
ssVgit
p14
(dp15
S'bat'
p16
F743.1250100135803
ssVopenvpn
p17
(dp18
S'bat'
p19
F311.3672959804535
ssVsqlite3
p20
(dp21
g19
F122.87743902206421
ssVwatcher
p22
(dp23
g5
F12.006606101989746
ssVtcpdump
p24
(dp25
g19
F417.0061981678009
sss.